; Function Attrs: mustprogress uwtable
define void @_ZN16FunnelStatistics21funnelActionTriggeredEv(ptr noundef nonnull align 8 dereferenceable(88) %0) local_unnamed_addr #0 align 2 {
  %2 = tail call noundef ptr @_ZNK7QObject6senderEv(ptr noundef nonnull align 8 dereferenceable(16) %0)
  %3 = icmp eq ptr %2, null
  br i1 %3, label %.thread, label %4

4:                                                ; preds = %1
  %5 = tail call ptr @__dynamic_cast(ptr nonnull %2, ptr nonnull @_ZTI7QObject, ptr nonnull @_ZTI12FunnelAction, i64 0) #24
  %.not = icmp eq ptr %5, null
  br i1 %.not, label %.thread, label %6

6:                                                ; preds = %4
  %7 = load ptr, ptr %5, align 8
  %8 = getelementptr inbounds i8, ptr %7, i64 96
  %9 = load ptr, ptr %8, align 8
  tail call void %9(ptr noundef nonnull align 8 dereferenceable(112) %5)
  br label %.thread

.thread:                                          ; preds = %1, %4, %6
  ret void
}